target datalayout = "e-m:e-p270:32:32-p271:32:32-p272:64:64-i64:64-i128:128-f80:128-n8:16:32:64-S128"
target triple = "x86_64-pc-linux-gnu"

@.str = private unnamed_addr constant [123 x i8] c"generated/home/dtcxzyw/WorkSpace/Projects/compilers/llvm-opt-benchmark/bench/libquic/libquic/boringssl/crypto/x509/t_req.c\00", align 1

; Function Attrs: nounwind uwtable
define hidden i32 @X509_REQ_print(ptr noundef %0, ptr noundef %1) #0 {
  %3 = alloca ptr, align 8
  %4 = alloca ptr, align 8
  store ptr %0, ptr %3, align 8, !tbaa !13
  store ptr %1, ptr %4, align 8, !tbaa !11
  %5 = load ptr, ptr %3, align 8, !tbaa !13
  %6 = load ptr, ptr %4, align 8, !tbaa !11
  %7 = call i32 @X509_REQ_print_ex(ptr noundef %5, ptr noundef %6, i64 noundef 0, i64 noundef 0)
  ret i32 %7
}

; Function Attrs: nounwind uwtable
define hidden i32 @X509_REQ_print_fp(ptr noundef %0, ptr noundef %1) #0 {
  %3 = alloca i32, align 4
  %4 = alloca ptr, align 8
  %5 = alloca ptr, align 8
  %6 = alloca ptr, align 8
  %7 = alloca i32, align 4
  %8 = alloca i32, align 4
  store ptr %0, ptr %4, align 8, !tbaa !6
  store ptr %1, ptr %5, align 8, !tbaa !11
  call void @llvm.lifetime.start.p0(i64 8, ptr %6) #3
  %9 = call ptr @BIO_s_file()
  %10 = call ptr @BIO_new(ptr noundef %9)
  store ptr %10, ptr %6, align 8, !tbaa !13
  %11 = load ptr, ptr %6, align 8, !tbaa !13
  %12 = icmp eq ptr %11, null
  br i1 %12, label %13, label %14

13:                                               ; preds = %2
  call void @ERR_put_error(i32 noundef 11, i32 noundef 0, i32 noundef 7, ptr noundef @.str, i32 noundef 70)
  store i32 0, ptr %3, align 4
  store i32 1, ptr %7, align 4
  br label %24

14:                                               ; preds = %2
  %15 = load ptr, ptr %6, align 8, !tbaa !13
  %16 = load ptr, ptr %4, align 8, !tbaa !6
  %17 = call i32 @BIO_set_fp(ptr noundef %15, ptr noundef %16, i32 noundef 0)
  call void @llvm.lifetime.start.p0(i64 4, ptr %8) #3
  %18 = load ptr, ptr %6, align 8, !tbaa !13
  %19 = load ptr, ptr %5, align 8, !tbaa !11
  %20 = call i32 @X509_REQ_print(ptr noundef %18, ptr noundef %19)
  store i32 %20, ptr %8, align 4, !tbaa !15
  %21 = load ptr, ptr %6, align 8, !tbaa !13
  %22 = call i32 @BIO_free(ptr noundef %21)
  %23 = load i32, ptr %8, align 4, !tbaa !15
  store i32 %23, ptr %3, align 4
  store i32 1, ptr %7, align 4
  call void @llvm.lifetime.end.p0(i64 4, ptr %8) #3
  br label %24

24:                                               ; preds = %14, %13
  call void @llvm.lifetime.end.p0(i64 8, ptr %6) #3
  %25 = load i32, ptr %3, align 4
  ret i32 %25
}