; Function Attrs: nounwind uwtable
define hidden range(i32 0, 2) i32 @X509_REQ_print_fp(ptr noundef %0, ptr noundef %1) local_unnamed_addr #0 {
  %3 = tail call ptr @BIO_s_file() #2
  %4 = tail call ptr @BIO_new(ptr noundef %3) #2
  %5 = icmp eq ptr %4, null
  br i1 %5, label %6, label %7

6:                                                ; preds = %2
  tail call void @ERR_put_error(i32 noundef 11, i32 noundef 0, i32 noundef 7, ptr noundef nonnull @.str, i32 noundef 70) #2
  br label %11

7:                                                ; preds = %2
  %8 = tail call i32 @BIO_set_fp(ptr noundef nonnull %4, ptr noundef %0, i32 noundef 0) #2
  %9 = tail call range(i32 0, 2) i32 @X509_REQ_print_ex(ptr noundef nonnull %4, ptr noundef %1, i64 noundef 0, i64 noundef 0)
  %10 = tail call i32 @BIO_free(ptr noundef nonnull %4) #2
  br label %11

11:                                               ; preds = %7, %6
  %.0 = phi i32 [ 0, %6 ], [ %9, %7 ]
  ret i32 %.0
}